; Function Attrs: mustprogress nofree norecurse nosync nounwind memory(read, argmem: readwrite, inaccessiblemem: none) uwtable
define internal fastcc noundef zeroext i1 @_ZN4absl18debugging_internal12_GLOBAL__N_116RustSymbolParser21ParseRequiredLifetimeEv(ptr noundef nonnull align 8 captures(none) dereferenceable(432) %0) unnamed_addr #2 align 2 {
  %2 = getelementptr inbounds nuw i8, ptr %0, i64 400
  %.val = load i32, ptr %2, align 8, !tbaa !17
  %3 = getelementptr inbounds nuw i8, ptr %0, i64 408
  %.val2 = load ptr, ptr %3, align 8, !tbaa !4
  %4 = sext i32 %.val to i64
  %5 = getelementptr inbounds i8, ptr %.val2, i64 %4
  %6 = load i8, ptr %5, align 1, !tbaa !13
  %.not = icmp eq i8 %6, 76
  br i1 %.not, label %7, label %_ZN4absl18debugging_internal12_GLOBAL__N_116RustSymbolParser21ParseOptionalLifetimeEv.exit

7:                                                ; preds = %1
  %8 = add nsw i32 %.val, 1
  store i32 %8, ptr %2, align 8, !tbaa !17
  %9 = sext i32 %8 to i64
  %10 = getelementptr inbounds i8, ptr %.val2, i64 %9
  %11 = load i8, ptr %10, align 1, !tbaa !13
  %.not.i.i.i = icmp eq i8 %11, 95
  br i1 %.not.i.i.i, label %17, label %_ZN4absl18debugging_internal12_GLOBAL__N_116RustSymbolParser3EatEc.exit.preheader.i.i

_ZN4absl18debugging_internal12_GLOBAL__N_116RustSymbolParser3EatEc.exit.preheader.i.i: ; preds = %7
  %12 = and i8 %11, -33
  %13 = add i8 %12, -65
  %14 = icmp ult i8 %13, 26
  %15 = add i8 %11, -48
  %16 = icmp ult i8 %15, 10
  %or.cond25.i.i = or i1 %16, %14
  br i1 %or.cond25.i.i, label %.critedge.i.i, label %_ZN4absl18debugging_internal12_GLOBAL__N_116RustSymbolParser21ParseOptionalLifetimeEv.exit

17:                                               ; preds = %7
  %18 = add nsw i32 %.val, 2
  br label %_ZN4absl18debugging_internal12_GLOBAL__N_116RustSymbolParser3EatEc.exit.sink.split.i

.critedge.i.i:                                    ; preds = %_ZN4absl18debugging_internal12_GLOBAL__N_116RustSymbolParser3EatEc.exit.preheader.i.i, %.critedge.i.i
  %indvars.iv.i.i = phi i64 [ %indvars.iv.next.i.i, %.critedge.i.i ], [ %9, %_ZN4absl18debugging_internal12_GLOBAL__N_116RustSymbolParser3EatEc.exit.preheader.i.i ]
  %indvars.iv.next.i.i = add nsw i64 %indvars.iv.i.i, 1
  %19 = trunc nsw i64 %indvars.iv.next.i.i to i32
  store i32 %19, ptr %2, align 8, !tbaa !17
  %20 = getelementptr inbounds i8, ptr %.val2, i64 %indvars.iv.next.i.i
  %21 = load i8, ptr %20, align 1, !tbaa !13
  %22 = and i8 %21, -33
  %23 = add i8 %22, -65
  %24 = icmp ult i8 %23, 26
  %25 = add i8 %21, -48
  %26 = icmp ult i8 %25, 10
  %or.cond.i.i = or i1 %26, %24
  br i1 %or.cond.i.i, label %.critedge.i.i, label %_ZN4absl18debugging_internal12_GLOBAL__N_116RustSymbolParser3EatEc.exit._crit_edge.i.i, !llvm.loop !19

_ZN4absl18debugging_internal12_GLOBAL__N_116RustSymbolParser3EatEc.exit._crit_edge.i.i: ; preds = %.critedge.i.i
  %27 = icmp eq i8 %21, 95
  br i1 %27, label %28, label %_ZN4absl18debugging_internal12_GLOBAL__N_116RustSymbolParser21ParseOptionalLifetimeEv.exit

28:                                               ; preds = %_ZN4absl18debugging_internal12_GLOBAL__N_116RustSymbolParser3EatEc.exit._crit_edge.i.i
  %29 = add nsw i32 %19, 1
  br label %_ZN4absl18debugging_internal12_GLOBAL__N_116RustSymbolParser3EatEc.exit.sink.split.i

_ZN4absl18debugging_internal12_GLOBAL__N_116RustSymbolParser3EatEc.exit.sink.split.i: ; preds = %28, %17
  %.sink.i = phi i32 [ %29, %28 ], [ %18, %17 ]
  store i32 %.sink.i, ptr %2, align 8, !tbaa !17
  br label %_ZN4absl18debugging_internal12_GLOBAL__N_116RustSymbolParser21ParseOptionalLifetimeEv.exit

_ZN4absl18debugging_internal12_GLOBAL__N_116RustSymbolParser21ParseOptionalLifetimeEv.exit: ; preds = %_ZN4absl18debugging_internal12_GLOBAL__N_116RustSymbolParser3EatEc.exit.sink.split.i, %_ZN4absl18debugging_internal12_GLOBAL__N_116RustSymbolParser3EatEc.exit._crit_edge.i.i, %_ZN4absl18debugging_internal12_GLOBAL__N_116RustSymbolParser3EatEc.exit.preheader.i.i, %1
  %.0 = phi i1 [ false, %1 ], [ false, %_ZN4absl18debugging_internal12_GLOBAL__N_116RustSymbolParser3EatEc.exit._crit_edge.i.i ], [ false, %_ZN4absl18debugging_internal12_GLOBAL__N_116RustSymbolParser3EatEc.exit.preheader.i.i ], [ true, %_ZN4absl18debugging_internal12_GLOBAL__N_116RustSymbolParser3EatEc.exit.sink.split.i ]
  ret i1 %.0
}